target datalayout = "e-m:e-p270:32:32-p271:32:32-p272:64:64-i64:64-i128:128-f80:128-n8:16:32:64-S128"
target triple = "x86_64-pc-linux-gnu"

%"class.std::__cxx11::basic_string" = type { %"struct.std::__cxx11::basic_string<char>::_Alloc_hider", i64, %union.anon }
%"struct.std::__cxx11::basic_string<char>::_Alloc_hider" = type { ptr }
%union.anon = type { i64, [8 x i8] }
%"struct.boost::unit_test::(anonymous namespace)::unit_test_log_impl" = type { %"class.std::vector", %"class.std::vector.0", %"struct.boost::unit_test::log_entry_data", %"struct.boost::unit_test::log_checkpoint_data" }
%"class.std::vector" = type { %"struct.std::_Vector_base" }
%"struct.std::_Vector_base" = type { %"struct.std::_Vector_base<boost::unit_test::(anonymous namespace)::unit_test_log_data_helper_impl, std::allocator<boost::unit_test::(anonymous namespace)::unit_test_log_data_helper_impl>>::_Vector_impl" }
%"struct.std::_Vector_base<boost::unit_test::(anonymous namespace)::unit_test_log_data_helper_impl, std::allocator<boost::unit_test::(anonymous namespace)::unit_test_log_data_helper_impl>>::_Vector_impl" = type { %"struct.std::_Vector_base<boost::unit_test::(anonymous namespace)::unit_test_log_data_helper_impl, std::allocator<boost::unit_test::(anonymous namespace)::unit_test_log_data_helper_impl>>::_Vector_impl_data" }
%"struct.std::_Vector_base<boost::unit_test::(anonymous namespace)::unit_test_log_data_helper_impl, std::allocator<boost::unit_test::(anonymous namespace)::unit_test_log_data_helper_impl>>::_Vector_impl_data" = type { ptr, ptr, ptr }
%"class.std::vector.0" = type { %"struct.std::_Vector_base.1" }
%"struct.std::_Vector_base.1" = type { %"struct.std::_Vector_base<boost::unit_test::(anonymous namespace)::unit_test_log_data_helper_impl *, std::allocator<boost::unit_test::(anonymous namespace)::unit_test_log_data_helper_impl *>>::_Vector_impl" }
%"struct.std::_Vector_base<boost::unit_test::(anonymous namespace)::unit_test_log_data_helper_impl *, std::allocator<boost::unit_test::(anonymous namespace)::unit_test_log_data_helper_impl *>>::_Vector_impl" = type { %"struct.std::_Vector_base<boost::unit_test::(anonymous namespace)::unit_test_log_data_helper_impl *, std::allocator<boost::unit_test::(anonymous namespace)::unit_test_log_data_helper_impl *>>::_Vector_impl_data" }
%"struct.std::_Vector_base<boost::unit_test::(anonymous namespace)::unit_test_log_data_helper_impl *, std::allocator<boost::unit_test::(anonymous namespace)::unit_test_log_data_helper_impl *>>::_Vector_impl_data" = type { ptr, ptr, ptr }
%"struct.boost::unit_test::log_entry_data" = type <{ %"class.std::__cxx11::basic_string", i64, i32, [4 x i8] }>
%"struct.boost::unit_test::log_checkpoint_data" = type { %"class.boost::unit_test::basic_cstring", i64, %"class.std::__cxx11::basic_string" }
%"class.boost::unit_test::basic_cstring" = type { ptr, ptr }
%"struct.boost::unit_test::(anonymous namespace)::unit_test_log_data_helper_impl" = type <{ i8, [3 x i8], i32, ptr, %"class.boost::shared_ptr", %"class.boost::shared_ptr.8", i8, [7 x i8] }>
%"class.boost::shared_ptr" = type { ptr, %"class.boost::detail::shared_count" }
%"class.boost::detail::shared_count" = type { ptr }
%"class.boost::shared_ptr.8" = type { ptr, %"class.boost::detail::shared_count" }
%"class.__gnu_cxx::__normal_iterator" = type { ptr }

@__dso_handle = external hidden global i8
@_ZZN5boost9unit_test12_GLOBAL__N_110s_log_implEvE8the_inst = internal global %"struct.boost::unit_test::(anonymous namespace)::unit_test_log_impl" zeroinitializer, align 8
@_ZGVZN5boost9unit_test12_GLOBAL__N_110s_log_implEvE8the_inst = internal global i64 0, align 8

; Function Attrs: mustprogress nounwind uwtable
define internal noundef nonnull align 8 dereferenceable(8) ptr @_ZNK9__gnu_cxx17__normal_iteratorIPN5boost9unit_test12_GLOBAL__N_130unit_test_log_data_helper_implESt6vectorIS4_SaIS4_EEE4baseEv(ptr noundef nonnull align 8 dereferenceable(8) %0) #4 align 2 {
  %2 = alloca ptr, align 8
  store ptr %0, ptr %2, align 8, !tbaa !3
  %3 = load ptr, ptr %2, align 8
  %4 = getelementptr inbounds nuw %"class.__gnu_cxx::__normal_iterator", ptr %3, i32 0, i32 0
  ret ptr %4
}

; Function Attrs: mustprogress nounwind uwtable
define internal void @_ZN9__gnu_cxx17__normal_iteratorIPN5boost9unit_test12_GLOBAL__N_130unit_test_log_data_helper_implESt6vectorIS4_SaIS4_EEEC2ERKS5_(ptr noundef nonnull align 8 dereferenceable(8) %0, ptr noundef nonnull align 8 dereferenceable(8) %1) unnamed_addr #4 align 2 {
  %3 = alloca ptr, align 8
  %4 = alloca ptr, align 8
  store ptr %0, ptr %3, align 8, !tbaa !3
  store ptr %1, ptr %4, align 8, !tbaa !3
  %5 = load ptr, ptr %3, align 8
  %6 = getelementptr inbounds nuw %"class.__gnu_cxx::__normal_iterator", ptr %5, i32 0, i32 0
  %7 = load ptr, ptr %4, align 8, !tbaa !3
  %8 = load ptr, ptr %7, align 8, !tbaa !3
  store ptr %8, ptr %6, align 8, !tbaa !48
  ret void
}

; Function Attrs: mustprogress nounwind uwtable
define internal noundef nonnull align 8 dereferenceable(8) ptr @_ZN9__gnu_cxx17__normal_iteratorIPN5boost9unit_test12_GLOBAL__N_130unit_test_log_data_helper_implESt6vectorIS4_SaIS4_EEEppEv(ptr noundef nonnull align 8 dereferenceable(8) %0) #4 align 2 {
  %2 = alloca ptr, align 8
  store ptr %0, ptr %2, align 8, !tbaa !3
  %3 = load ptr, ptr %2, align 8
  %4 = getelementptr inbounds nuw %"class.__gnu_cxx::__normal_iterator", ptr %3, i32 0, i32 0
  %5 = load ptr, ptr %4, align 8, !tbaa !48
  %6 = getelementptr inbounds nuw %"struct.boost::unit_test::(anonymous namespace)::unit_test_log_data_helper_impl", ptr %5, i32 1
  store ptr %6, ptr %4, align 8, !tbaa !48
  ret ptr %3
}

; Function Attrs: mustprogress nounwind uwtable
define linkonce_odr hidden noundef ptr @_ZNK5boost10shared_ptrINS_9unit_test23unit_test_log_formatterEE3getEv(ptr noundef nonnull align 8 dereferenceable(16) %0) #4 comdat align 2 {
  %2 = alloca ptr, align 8
  store ptr %0, ptr %2, align 8, !tbaa !3
  %3 = load ptr, ptr %2, align 8
  %4 = getelementptr inbounds nuw %"class.boost::shared_ptr.8", ptr %3, i32 0, i32 0
  %5 = load ptr, ptr %4, align 8, !tbaa !55
  ret ptr %5
}

; Function Attrs: mustprogress nounwind uwtable
define internal noundef nonnull align 8 dereferenceable(49) ptr @_ZNK9__gnu_cxx17__normal_iteratorIPN5boost9unit_test12_GLOBAL__N_130unit_test_log_data_helper_implESt6vectorIS4_SaIS4_EEEdeEv(ptr noundef nonnull align 8 dereferenceable(8) %0) #4 align 2 {
  %2 = alloca ptr, align 8
  store ptr %0, ptr %2, align 8, !tbaa !3
  %3 = load ptr, ptr %2, align 8
  %4 = getelementptr inbounds nuw %"class.__gnu_cxx::__normal_iterator", ptr %3, i32 0, i32 0
  %5 = load ptr, ptr %4, align 8, !tbaa !48
  ret ptr %5
}

; Function Attrs: inlinehint mustprogress nounwind uwtable
define internal noundef zeroext i1 @_ZN9__gnu_cxxltIPN5boost9unit_test12_GLOBAL__N_130unit_test_log_data_helper_implESt6vectorIS4_SaIS4_EEEEbRKNS_17__normal_iteratorIT_T0_EESE_(ptr noundef nonnull align 8 dereferenceable(8) %0, ptr noundef nonnull align 8 dereferenceable(8) %1) #6 {
  %3 = alloca ptr, align 8
  %4 = alloca ptr, align 8
  store ptr %0, ptr %3, align 8, !tbaa !3
  store ptr %1, ptr %4, align 8, !tbaa !3
  %5 = load ptr, ptr %3, align 8, !tbaa !3
  %6 = call noundef nonnull align 8 dereferenceable(8) ptr @_ZNK9__gnu_cxx17__normal_iteratorIPN5boost9unit_test12_GLOBAL__N_130unit_test_log_data_helper_implESt6vectorIS4_SaIS4_EEE4baseEv(ptr noundef nonnull align 8 dereferenceable(8) %5) #3
  %7 = load ptr, ptr %6, align 8, !tbaa !3
  %8 = load ptr, ptr %4, align 8, !tbaa !3
  %9 = call noundef nonnull align 8 dereferenceable(8) ptr @_ZNK9__gnu_cxx17__normal_iteratorIPN5boost9unit_test12_GLOBAL__N_130unit_test_log_data_helper_implESt6vectorIS4_SaIS4_EEE4baseEv(ptr noundef nonnull align 8 dereferenceable(8) %8) #3
  %10 = load ptr, ptr %9, align 8, !tbaa !3
  %11 = icmp ult ptr %7, %10
  ret i1 %11
}

; Function Attrs: mustprogress nounwind uwtable
define internal ptr @_ZNSt6vectorIN5boost9unit_test12_GLOBAL__N_130unit_test_log_data_helper_implESaIS3_EE3endEv(ptr noundef nonnull align 8 dereferenceable(24) %0) #4 align 2 {
  %2 = alloca %"class.__gnu_cxx::__normal_iterator", align 8
  %3 = alloca ptr, align 8
  store ptr %0, ptr %3, align 8, !tbaa !3
  %4 = load ptr, ptr %3, align 8
  %5 = getelementptr inbounds nuw %"struct.std::_Vector_base", ptr %4, i32 0, i32 0
  %6 = getelementptr inbounds nuw %"struct.std::_Vector_base<boost::unit_test::(anonymous namespace)::unit_test_log_data_helper_impl, std::allocator<boost::unit_test::(anonymous namespace)::unit_test_log_data_helper_impl>>::_Vector_impl_data", ptr %5, i32 0, i32 1
  call void @_ZN9__gnu_cxx17__normal_iteratorIPN5boost9unit_test12_GLOBAL__N_130unit_test_log_data_helper_implESt6vectorIS4_SaIS4_EEEC2ERKS5_(ptr noundef nonnull align 8 dereferenceable(8) %2, ptr noundef nonnull align 8 dereferenceable(8) %6) #3
  %7 = getelementptr inbounds nuw %"class.__gnu_cxx::__normal_iterator", ptr %2, i32 0, i32 0
  %8 = load ptr, ptr %7, align 8
  ret ptr %8
}

; Function Attrs: mustprogress nounwind uwtable
define internal ptr @_ZNSt6vectorIN5boost9unit_test12_GLOBAL__N_130unit_test_log_data_helper_implESaIS3_EE5beginEv(ptr noundef nonnull align 8 dereferenceable(24) %0) #4 align 2 {
  %2 = alloca %"class.__gnu_cxx::__normal_iterator", align 8
  %3 = alloca ptr, align 8
  store ptr %0, ptr %3, align 8, !tbaa !3
  %4 = load ptr, ptr %3, align 8
  %5 = getelementptr inbounds nuw %"struct.std::_Vector_base", ptr %4, i32 0, i32 0
  %6 = getelementptr inbounds nuw %"struct.std::_Vector_base<boost::unit_test::(anonymous namespace)::unit_test_log_data_helper_impl, std::allocator<boost::unit_test::(anonymous namespace)::unit_test_log_data_helper_impl>>::_Vector_impl_data", ptr %5, i32 0, i32 0
  call void @_ZN9__gnu_cxx17__normal_iteratorIPN5boost9unit_test12_GLOBAL__N_130unit_test_log_data_helper_implESt6vectorIS4_SaIS4_EEEC2ERKS5_(ptr noundef nonnull align 8 dereferenceable(8) %2, ptr noundef nonnull align 8 dereferenceable(8) %6) #3
  %7 = getelementptr inbounds nuw %"class.__gnu_cxx::__normal_iterator", ptr %2, i32 0, i32 0
  %8 = load ptr, ptr %7, align 8
  ret ptr %8
}

; Function Attrs: mustprogress uwtable
define internal noundef nonnull align 8 dereferenceable(152) ptr @_ZN5boost9unit_test12_GLOBAL__N_110s_log_implEv() #5 personality ptr @__gxx_personality_v0 {
  %1 = alloca ptr, align 8
  %2 = alloca i32, align 4
  %3 = load atomic i8, ptr @_ZGVZN5boost9unit_test12_GLOBAL__N_110s_log_implEvE8the_inst acquire, align 8
  %4 = icmp eq i8 %3, 0
  br i1 %4, label %5, label %11, !prof !7

5:                                                ; preds = %0
  %6 = call i32 @__cxa_guard_acquire(ptr @_ZGVZN5boost9unit_test12_GLOBAL__N_110s_log_implEvE8the_inst) #3
  %7 = icmp ne i32 %6, 0
  br i1 %7, label %8, label %11

8:                                                ; preds = %5
  invoke void @_ZN5boost9unit_test12_GLOBAL__N_118unit_test_log_implC2Ev(ptr noundef nonnull align 8 dereferenceable(152) @_ZZN5boost9unit_test12_GLOBAL__N_110s_log_implEvE8the_inst)
          to label %9 unwind label %12

9:                                                ; preds = %8
  %10 = call i32 @__cxa_atexit(ptr @_ZN5boost9unit_test12_GLOBAL__N_118unit_test_log_implD2Ev, ptr @_ZZN5boost9unit_test12_GLOBAL__N_110s_log_implEvE8the_inst, ptr @__dso_handle) #3
  call void @__cxa_guard_release(ptr @_ZGVZN5boost9unit_test12_GLOBAL__N_110s_log_implEvE8the_inst) #3
  br label %11

11:                                               ; preds = %9, %5, %0
  ret ptr @_ZZN5boost9unit_test12_GLOBAL__N_110s_log_implEvE8the_inst

12:                                               ; preds = %8
  %13 = landingpad { ptr, i32 }
          cleanup
  %14 = extractvalue { ptr, i32 } %13, 0
  store ptr %14, ptr %1, align 8
  %15 = extractvalue { ptr, i32 } %13, 1
  store i32 %15, ptr %2, align 4
  call void @__cxa_guard_abort(ptr @_ZGVZN5boost9unit_test12_GLOBAL__N_110s_log_implEvE8the_inst) #3
  br label %16

16:                                               ; preds = %12
  %17 = load ptr, ptr %1, align 8
  %18 = load i32, ptr %2, align 4
  %19 = insertvalue { ptr, i32 } poison, ptr %17, 0
  %20 = insertvalue { ptr, i32 } %19, i32 %18, 1
  resume { ptr, i32 } %20
}

; Function Attrs: mustprogress uwtable
define noundef ptr @_ZN5boost9unit_test15unit_test_log_t13get_formatterENS0_13output_formatE(ptr noundef nonnull align 8 dereferenceable(8) %0, i32 noundef %1) #5 align 2 {
  %3 = alloca ptr, align 8
  %4 = alloca ptr, align 8
  %5 = alloca i32, align 4
  %6 = alloca ptr, align 8
  %7 = alloca %"class.__gnu_cxx::__normal_iterator", align 8
  %8 = alloca %"class.__gnu_cxx::__normal_iterator", align 8
  %9 = alloca i32, align 4
  %10 = alloca ptr, align 8
  store ptr %0, ptr %4, align 8, !tbaa !3
  store i32 %1, ptr %5, align 4, !tbaa !93
  call void @llvm.lifetime.start.p0(i64 8, ptr %6) #3
  %11 = call noundef nonnull align 8 dereferenceable(152) ptr @_ZN5boost9unit_test12_GLOBAL__N_110s_log_implEv()
  %12 = getelementptr inbounds nuw %"struct.boost::unit_test::(anonymous namespace)::unit_test_log_impl", ptr %11, i32 0, i32 0
  store ptr %12, ptr %6, align 8, !tbaa !3
  call void @llvm.lifetime.start.p0(i64 8, ptr %7) #3
  %13 = load ptr, ptr %6, align 8, !tbaa !3
  %14 = call ptr @_ZNSt6vectorIN5boost9unit_test12_GLOBAL__N_130unit_test_log_data_helper_implESaIS3_EE5beginEv(ptr noundef nonnull align 8 dereferenceable(24) %13) #3
  %15 = getelementptr inbounds nuw %"class.__gnu_cxx::__normal_iterator", ptr %7, i32 0, i32 0
  store ptr %14, ptr %15, align 8
  call void @llvm.lifetime.start.p0(i64 8, ptr %8) #3
  %16 = load ptr, ptr %6, align 8, !tbaa !3
  %17 = call ptr @_ZNSt6vectorIN5boost9unit_test12_GLOBAL__N_130unit_test_log_data_helper_implESaIS3_EE3endEv(ptr noundef nonnull align 8 dereferenceable(24) %16) #3
  %18 = getelementptr inbounds nuw %"class.__gnu_cxx::__normal_iterator", ptr %8, i32 0, i32 0
  store ptr %17, ptr %18, align 8
  br label %19

19:                                               ; preds = %37, %2
  %20 = call noundef zeroext i1 @_ZN9__gnu_cxxltIPN5boost9unit_test12_GLOBAL__N_130unit_test_log_data_helper_implESt6vectorIS4_SaIS4_EEEEbRKNS_17__normal_iteratorIT_T0_EESE_(ptr noundef nonnull align 8 dereferenceable(8) %7, ptr noundef nonnull align 8 dereferenceable(8) %8) #3
  br i1 %20, label %22, label %21

21:                                               ; preds = %19
  store i32 2, ptr %9, align 4
  br label %39

22:                                               ; preds = %19
  call void @llvm.lifetime.start.p0(i64 8, ptr %10) #3
  %23 = call noundef nonnull align 8 dereferenceable(49) ptr @_ZNK9__gnu_cxx17__normal_iteratorIPN5boost9unit_test12_GLOBAL__N_130unit_test_log_data_helper_implESt6vectorIS4_SaIS4_EEEdeEv(ptr noundef nonnull align 8 dereferenceable(8) %7) #3
  store ptr %23, ptr %10, align 8, !tbaa !3
  %24 = load ptr, ptr %10, align 8, !tbaa !3
  %25 = getelementptr inbounds nuw %"struct.boost::unit_test::(anonymous namespace)::unit_test_log_data_helper_impl", ptr %24, i32 0, i32 2
  %26 = load i32, ptr %25, align 4, !tbaa !94
  %27 = load i32, ptr %5, align 4, !tbaa !93
  %28 = icmp eq i32 %26, %27
  br i1 %28, label %29, label %33

29:                                               ; preds = %22
  %30 = load ptr, ptr %10, align 8, !tbaa !3
  %31 = getelementptr inbounds nuw %"struct.boost::unit_test::(anonymous namespace)::unit_test_log_data_helper_impl", ptr %30, i32 0, i32 5
  %32 = call noundef ptr @_ZNK5boost10shared_ptrINS_9unit_test23unit_test_log_formatterEE3getEv(ptr noundef nonnull align 8 dereferenceable(16) %31) #3
  store ptr %32, ptr %3, align 8
  store i32 1, ptr %9, align 4
  br label %34

33:                                               ; preds = %22
  store i32 0, ptr %9, align 4
  br label %34

34:                                               ; preds = %33, %29
  call void @llvm.lifetime.end.p0(i64 8, ptr %10) #3
  %35 = load i32, ptr %9, align 4
  switch i32 %35, label %39 [
    i32 0, label %36
  ]

36:                                               ; preds = %34
  br label %37

37:                                               ; preds = %36
  %38 = call noundef nonnull align 8 dereferenceable(8) ptr @_ZN9__gnu_cxx17__normal_iteratorIPN5boost9unit_test12_GLOBAL__N_130unit_test_log_data_helper_implESt6vectorIS4_SaIS4_EEEppEv(ptr noundef nonnull align 8 dereferenceable(8) %7) #3
  br label %19, !llvm.loop !101

39:                                               ; preds = %34, %21
  call void @llvm.lifetime.end.p0(i64 8, ptr %8) #3
  call void @llvm.lifetime.end.p0(i64 8, ptr %7) #3
  %40 = load i32, ptr %9, align 4
  switch i32 %40, label %42 [
    i32 2, label %41
  ]

41:                                               ; preds = %39
  store ptr null, ptr %3, align 8
  store i32 1, ptr %9, align 4
  br label %42

42:                                               ; preds = %41, %39
  call void @llvm.lifetime.end.p0(i64 8, ptr %6) #3
  %43 = load ptr, ptr %3, align 8
  ret ptr %43
}