; Function Attrs: mustprogress uwtable
define noundef ptr @_ZN5boost9unit_test15unit_test_log_t13get_formatterENS0_13output_formatE(ptr nocapture noundef nonnull readnone align 8 dereferenceable(8) %0, i32 noundef %1) local_unnamed_addr #4 align 2 personality ptr @__gxx_personality_v0 {
  %3 = load atomic i8, ptr @_ZGVZN5boost9unit_test12_GLOBAL__N_110s_log_implEvE8the_inst acquire, align 8
  %4 = icmp eq i8 %3, 0
  br i1 %4, label %5, label %_ZN5boost9unit_test12_GLOBAL__N_110s_log_implEv.exit, !prof !3

5:                                                ; preds = %2
  %6 = tail call i32 @__cxa_guard_acquire(ptr nonnull @_ZGVZN5boost9unit_test12_GLOBAL__N_110s_log_implEvE8the_inst) #27
  %.not.i = icmp eq i32 %6, 0
  br i1 %.not.i, label %_ZN5boost9unit_test12_GLOBAL__N_110s_log_implEv.exit, label %7

7:                                                ; preds = %5
  invoke fastcc void @_ZN5boost9unit_test12_GLOBAL__N_118unit_test_log_implC2Ev()
          to label %8 unwind label %10

8:                                                ; preds = %7
  %9 = tail call i32 @__cxa_atexit(ptr nonnull @_ZN5boost9unit_test12_GLOBAL__N_118unit_test_log_implD2Ev, ptr nonnull @_ZZN5boost9unit_test12_GLOBAL__N_110s_log_implEvE8the_inst, ptr nonnull @__dso_handle) #27
  tail call void @__cxa_guard_release(ptr nonnull @_ZGVZN5boost9unit_test12_GLOBAL__N_110s_log_implEvE8the_inst) #27
  br label %_ZN5boost9unit_test12_GLOBAL__N_110s_log_implEv.exit

10:                                               ; preds = %7
  %11 = landingpad { ptr, i32 }
          cleanup
  tail call void @__cxa_guard_abort(ptr nonnull @_ZGVZN5boost9unit_test12_GLOBAL__N_110s_log_implEvE8the_inst) #27
  resume { ptr, i32 } %11

_ZN5boost9unit_test12_GLOBAL__N_110s_log_implEv.exit: ; preds = %2, %5, %8
  %_ZZN5boost9unit_test12_GLOBAL__N_110s_log_implEvE8the_inst.val.i = load ptr, ptr @_ZZN5boost9unit_test12_GLOBAL__N_110s_log_implEvE8the_inst, align 8, !tbaa !4
  %.val.i = load ptr, ptr getelementptr inbounds nuw (i8, ptr @_ZZN5boost9unit_test12_GLOBAL__N_110s_log_implEvE8the_inst, i64 8), align 8, !tbaa !4
  %12 = icmp ult ptr %_ZZN5boost9unit_test12_GLOBAL__N_110s_log_implEvE8the_inst.val.i, %.val.i
  br i1 %12, label %.lr.ph, label %.loopexit

.lr.ph:                                           ; preds = %_ZN5boost9unit_test12_GLOBAL__N_110s_log_implEv.exit, %17
  %.sroa.012.015 = phi ptr [ %18, %17 ], [ %_ZZN5boost9unit_test12_GLOBAL__N_110s_log_implEvE8the_inst.val.i, %_ZN5boost9unit_test12_GLOBAL__N_110s_log_implEv.exit ]
  %13 = getelementptr inbounds nuw i8, ptr %.sroa.012.015, i64 4
  %14 = load i32, ptr %13, align 4, !tbaa !106
  %.not = icmp eq i32 %14, %1
  br i1 %.not, label %.thread, label %17

.thread:                                          ; preds = %.lr.ph
  %15 = getelementptr inbounds nuw i8, ptr %.sroa.012.015, i64 32
  %16 = load ptr, ptr %15, align 8, !tbaa !30
  br label %.loopexit

17:                                               ; preds = %.lr.ph
  %18 = getelementptr inbounds nuw i8, ptr %.sroa.012.015, i64 56
  %19 = icmp ult ptr %18, %.val.i
  br i1 %19, label %.lr.ph, label %.loopexit, !llvm.loop !113

.loopexit:                                        ; preds = %17, %_ZN5boost9unit_test12_GLOBAL__N_110s_log_implEv.exit, %.thread
  %spec.select = phi ptr [ %16, %.thread ], [ null, %_ZN5boost9unit_test12_GLOBAL__N_110s_log_implEv.exit ], [ null, %17 ]
  ret ptr %spec.select
}